target datalayout = "e-m:e-p270:32:32-p271:32:32-p272:64:64-i64:64-i128:128-f80:128-n8:16:32:64-S128"
target triple = "x86_64-pc-linux-gnu"

%class.Type.base = type <{ ptr, ptr, i32 }>
%class.TypeF = type { %class.Type.base, float }

@_ZN4Type5FLOATE = external global ptr, align 8

; Function Attrs: mustprogress nounwind uwtable
define linkonce_odr hidden noundef float @_ZNK4Type4getfEv(ptr noundef nonnull align 8 dereferenceable(20) %0) #1 comdat align 2 {
  %2 = alloca ptr, align 8
  store ptr %0, ptr %2, align 8
  %3 = load ptr, ptr %2, align 8
  %4 = getelementptr inbounds %class.TypeF, ptr %3, i32 0, i32 1
  %5 = load float, ptr %4, align 4
  ret float %5
}

; Function Attrs: mustprogress nounwind uwtable
define hidden noundef ptr @_ZNK8MulFNode8mul_ringEPK4TypeS2_(ptr noundef nonnull align 8 dereferenceable(52) %0, ptr noundef %1, ptr noundef %2) unnamed_addr #1 align 2 {
  %4 = alloca ptr, align 8
  %5 = alloca ptr, align 8
  %6 = alloca ptr, align 8
  %7 = alloca ptr, align 8
  store ptr %0, ptr %5, align 8
  store ptr %1, ptr %6, align 8
  store ptr %2, ptr %7, align 8
  %8 = load ptr, ptr %6, align 8
  %9 = load ptr, ptr @_ZN4Type5FLOATE, align 8
  %10 = icmp eq ptr %8, %9
  br i1 %10, label %15, label %11

11:                                               ; preds = %3
  %12 = load ptr, ptr %7, align 8
  %13 = load ptr, ptr @_ZN4Type5FLOATE, align 8
  %14 = icmp eq ptr %12, %13
  br i1 %14, label %15, label %17

15:                                               ; preds = %11, %3
  %16 = load ptr, ptr @_ZN4Type5FLOATE, align 8
  store ptr %16, ptr %4, align 8
  br label %24

17:                                               ; preds = %11
  %18 = load ptr, ptr %6, align 8
  %19 = call noundef float @_ZNK4Type4getfEv(ptr noundef nonnull align 8 dereferenceable(20) %18)
  %20 = load ptr, ptr %7, align 8
  %21 = call noundef float @_ZNK4Type4getfEv(ptr noundef nonnull align 8 dereferenceable(20) %20)
  %22 = fmul float %19, %21
  %23 = call noundef ptr @_ZN5TypeF4makeEf(float noundef %22)
  store ptr %23, ptr %4, align 8
  br label %24

24:                                               ; preds = %17, %15
  %25 = load ptr, ptr %4, align 8
  ret ptr %25
}