; Function Attrs: mustprogress nounwind uwtable
define hidden noundef ptr @_ZNK8MulFNode8mul_ringEPK4TypeS2_(ptr nocapture noundef nonnull readnone align 8 dereferenceable(52) %0, ptr noundef readonly %1, ptr noundef readonly %2) unnamed_addr #0 align 2 {
  %4 = load ptr, ptr @_ZN4Type5FLOATE, align 8
  %5 = icmp eq ptr %4, %1
  %6 = icmp eq ptr %4, %2
  %or.cond = or i1 %5, %6
  br i1 %or.cond, label %14, label %7

7:                                                ; preds = %3
  %8 = getelementptr inbounds i8, ptr %1, i64 20
  %9 = load float, ptr %8, align 4
  %10 = getelementptr inbounds i8, ptr %2, i64 20
  %11 = load float, ptr %10, align 4
  %12 = fmul float %9, %11
  %13 = tail call noundef ptr @_ZN5TypeF4makeEf(float noundef %12) #10
  br label %14

14:                                               ; preds = %3, %7
  %.0 = phi ptr [ %13, %7 ], [ %4, %3 ]
  ret ptr %.0
}